; Function Attrs: uwtable
define void @_ZThn1472_N3zmq13socket_base_t8hiccupedEPNS_6pipe_tE(ptr noundef %0, ptr noundef %1) unnamed_addr #26 align 2 {
  %3 = getelementptr inbounds i8, ptr %0, i64 -1084
  %4 = load i32, ptr %3, align 4, !tbaa !200
  %5 = icmp eq i32 %4, 1
  br i1 %5, label %6, label %7

6:                                                ; preds = %2
  tail call void @_ZN3zmq6pipe_t9terminateEb(ptr noundef nonnull align 8 dereferenceable(328) %1, i1 noundef zeroext false)
  br label %_ZN3zmq13socket_base_t8hiccupedEPNS_6pipe_tE.exit

7:                                                ; preds = %2
  %8 = getelementptr inbounds i8, ptr %0, i64 -1472
  %9 = load ptr, ptr %8, align 8, !tbaa !103
  %10 = getelementptr inbounds nuw i8, ptr %9, i64 328
  %11 = load ptr, ptr %10, align 8
  tail call void %11(ptr noundef nonnull align 8 dereferenceable(1825) %8, ptr noundef %1)
  br label %_ZN3zmq13socket_base_t8hiccupedEPNS_6pipe_tE.exit

_ZN3zmq13socket_base_t8hiccupedEPNS_6pipe_tE.exit: ; preds = %6, %7
  ret void
}